; Function Attrs: mustprogress nounwind uwtable
define dso_local void @_ZN4llvm9StackMaps23emitConstantPoolEntriesERNS_10MCStreamerE(ptr noundef nonnull align 8 dereferenceable(112) %0, ptr noundef nonnull align 8 dereferenceable(288) %1) local_unnamed_addr #0 align 2 {
  %3 = getelementptr inbounds i8, ptr %0, i64 56
  %4 = load ptr, ptr %3, align 8
  %5 = tail call noundef i64 @_ZNK4llvm15SmallVectorBaseIjE4sizeEv(ptr noundef nonnull align 8 dereferenceable(16) %3) #19
  %6 = getelementptr inbounds %"struct.std::pair.228", ptr %4, i64 %5
  %.not9 = icmp eq i64 %5, 0
  br i1 %.not9, label %._crit_edge, label %.lr.ph

.lr.ph:                                           ; preds = %2, %.lr.ph
  %.010 = phi ptr [ %12, %.lr.ph ], [ %4, %2 ]
  %7 = getelementptr inbounds nuw i8, ptr %.010, i64 8
  %8 = load i64, ptr %7, align 8
  %9 = load ptr, ptr %1, align 8
  %10 = getelementptr inbounds i8, ptr %9, i64 520
  %11 = load ptr, ptr %10, align 8
  tail call void %11(ptr noundef nonnull align 8 dereferenceable(288) %1, i64 noundef %8, i32 noundef 8) #19
  %12 = getelementptr inbounds i8, ptr %.010, i64 16
  %.not = icmp eq ptr %12, %6
  br i1 %.not, label %._crit_edge, label %.lr.ph

._crit_edge:                                      ; preds = %.lr.ph, %2
  ret void
}